target datalayout = "e-m:e-p270:32:32-p271:32:32-p272:64:64-i64:64-i128:128-f80:128-n8:16:32:64-S128"
target triple = "x86_64-unknown-linux-gnu"

%"class.std::set.11" = type { %"class.std::_Rb_tree.12" }
%"class.std::_Rb_tree.12" = type { %"struct.std::_Rb_tree<QuantLib::Observer *, QuantLib::Observer *, std::_Identity<QuantLib::Observer *>, std::less<QuantLib::Observer *>>::_Rb_tree_impl" }
%"struct.std::_Rb_tree<QuantLib::Observer *, QuantLib::Observer *, std::_Identity<QuantLib::Observer *>, std::less<QuantLib::Observer *>>::_Rb_tree_impl" = type { [8 x i8], %"struct.std::_Rb_tree_header" }
%"struct.std::_Rb_tree_header" = type { %"struct.std::_Rb_tree_node_base", i64 }
%"struct.std::_Rb_tree_node_base" = type { i32, ptr, ptr, ptr }
%"class.boost::detail::shared_count" = type { ptr }
%"class.std::set" = type { %"class.std::_Rb_tree" }
%"class.std::_Rb_tree" = type { %"struct.std::_Rb_tree<boost::shared_ptr<QuantLib::Observable>, boost::shared_ptr<QuantLib::Observable>, std::_Identity<boost::shared_ptr<QuantLib::Observable>>, std::less<boost::shared_ptr<QuantLib::Observable>>>::_Rb_tree_impl" }
%"struct.std::_Rb_tree<boost::shared_ptr<QuantLib::Observable>, boost::shared_ptr<QuantLib::Observable>, std::_Identity<boost::shared_ptr<QuantLib::Observable>>, std::less<boost::shared_ptr<QuantLib::Observable>>>::_Rb_tree_impl" = type { [8 x i8], %"struct.std::_Rb_tree_header" }
%"class.QuantLib::Observable" = type { ptr, %"class.std::set.11" }
%"class.QuantLib::AnalyticH1HWEngine::Fj_Helper" = type { i64, double, double, double, double, double, double, double, double, double }
%"class.boost::shared_ptr.29" = type { ptr, %"class.boost::detail::shared_count" }
%"class.QuantLib::Observer" = type { ptr, %"class.std::set" }
%"class.QuantLib::Handle.39" = type { %"class.boost::shared_ptr.40" }
%"class.boost::shared_ptr.40" = type { ptr, %"class.boost::detail::shared_count" }
%"class.std::complex" = type { { double, double } }
%"class.QuantLib::AnalyticH1HWEngine" = type { %"class.QuantLib::AnalyticHestonHullWhiteEngine", double }
%"class.QuantLib::AnalyticHestonHullWhiteEngine" = type { %"class.QuantLib::AnalyticHestonEngine", %"class.boost::shared_ptr.29", double, double, double }
%"class.QuantLib::AnalyticHestonEngine" = type { %"class.QuantLib::GenericModelEngine", i64, i32, %"class.boost::shared_ptr.43", double, double }
%"class.QuantLib::GenericModelEngine" = type { %"class.QuantLib::GenericEngine", %"class.QuantLib::Handle.39" }
%"class.QuantLib::GenericEngine" = type { %"class.QuantLib::PricingEngine", %"class.QuantLib::Observer", %"class.QuantLib::Option::arguments", %"class.QuantLib::OneAssetOption::results" }
%"class.QuantLib::PricingEngine" = type { %"class.QuantLib::Observable" }
%"class.QuantLib::Option::arguments" = type { %"class.QuantLib::PricingEngine::arguments", %"class.boost::shared_ptr.25", %"class.boost::shared_ptr.26" }
%"class.QuantLib::PricingEngine::arguments" = type { ptr }
%"class.boost::shared_ptr.25" = type { ptr, %"class.boost::detail::shared_count" }
%"class.boost::shared_ptr.26" = type { ptr, %"class.boost::detail::shared_count" }
%"class.QuantLib::OneAssetOption::results" = type { %"class.QuantLib::Instrument::results", %"class.QuantLib::Greeks", %"class.QuantLib::MoreGreeks" }
%"class.QuantLib::Instrument::results" = type { %"class.QuantLib::PricingEngine::results", double, double, %"class.QuantLib::Date", %"class.std::map" }
%"class.QuantLib::PricingEngine::results" = type { ptr }
%"class.QuantLib::Date" = type { i64 }
%"class.std::map" = type { %"class.std::_Rb_tree.19" }
%"class.std::_Rb_tree.19" = type { %"struct.std::_Rb_tree<std::__cxx11::basic_string<char>, std::pair<const std::__cxx11::basic_string<char>, boost::any>, std::_Select1st<std::pair<const std::__cxx11::basic_string<char>, boost::any>>, std::less<std::__cxx11::basic_string<char>>>::_Rb_tree_impl" }
%"struct.std::_Rb_tree<std::__cxx11::basic_string<char>, std::pair<const std::__cxx11::basic_string<char>, boost::any>, std::_Select1st<std::pair<const std::__cxx11::basic_string<char>, boost::any>>, std::less<std::__cxx11::basic_string<char>>>::_Rb_tree_impl" = type { [8 x i8], %"struct.std::_Rb_tree_header" }
%"class.QuantLib::Greeks" = type { %"class.QuantLib::PricingEngine::results", double, double, double, double, double, double }
%"class.QuantLib::MoreGreeks" = type { %"class.QuantLib::PricingEngine::results", double, double, double, double, double }
%"class.boost::shared_ptr.43" = type { ptr, %"class.boost::detail::shared_count" }

; Function Attrs: mustprogress nounwind uwtable
define linkonce_odr noundef { double, double } @_ZNKSt7complexIdE5__repEv(ptr noundef nonnull align 8 dereferenceable(16) %this) #3 comdat align 2 {
entry:
  %retval = alloca { double, double }, align 8
  %this.addr = alloca ptr, align 8
  store ptr %this, ptr %this.addr, align 8, !tbaa !3
  %this1 = load ptr, ptr %this.addr, align 8
  %_M_value = getelementptr inbounds nuw %"class.std::complex", ptr %this1, i32 0, i32 0
  %_M_value.realp = getelementptr inbounds nuw { double, double }, ptr %_M_value, i32 0, i32 0
  %_M_value.real = load double, ptr %_M_value.realp, align 8
  %_M_value.imagp = getelementptr inbounds nuw { double, double }, ptr %_M_value, i32 0, i32 1
  %_M_value.imag = load double, ptr %_M_value.imagp, align 8
  %retval.realp = getelementptr inbounds nuw { double, double }, ptr %retval, i32 0, i32 0
  %retval.imagp = getelementptr inbounds nuw { double, double }, ptr %retval, i32 0, i32 1
  store double %_M_value.real, ptr %retval.realp, align 8
  store double %_M_value.imag, ptr %retval.imagp, align 8
  %0 = load { double, double }, ptr %retval, align 8
  ret { double, double } %0
}

; Function Attrs: mustprogress uwtable
define linkonce_odr noundef nonnull align 8 dereferenceable(16) ptr @_ZNSt7complexIdEpLIdEERS0_RKS_IT_E(ptr noundef nonnull align 8 dereferenceable(16) %this, ptr noundef nonnull align 8 dereferenceable(16) %__z) #1 comdat align 2 {
entry:
  %this.addr = alloca ptr, align 8
  %__z.addr = alloca ptr, align 8
  store ptr %this, ptr %this.addr, align 8, !tbaa !3
  store ptr %__z, ptr %__z.addr, align 8, !tbaa !3
  %this1 = load ptr, ptr %this.addr, align 8
  %0 = load ptr, ptr %__z.addr, align 8, !tbaa !3
  %call = call noundef { double, double } @_ZNKSt7complexIdE5__repEv(ptr noundef nonnull align 8 dereferenceable(16) %0)
  %1 = extractvalue { double, double } %call, 0
  %2 = extractvalue { double, double } %call, 1
  %_M_value = getelementptr inbounds nuw %"class.std::complex", ptr %this1, i32 0, i32 0
  %_M_value.realp = getelementptr inbounds nuw { double, double }, ptr %_M_value, i32 0, i32 0
  %_M_value.real = load double, ptr %_M_value.realp, align 8
  %_M_value.imagp = getelementptr inbounds nuw { double, double }, ptr %_M_value, i32 0, i32 1
  %_M_value.imag = load double, ptr %_M_value.imagp, align 8
  %add.r = fadd double %_M_value.real, %1
  %add.i = fadd double %_M_value.imag, %2
  %_M_value.realp2 = getelementptr inbounds nuw { double, double }, ptr %_M_value, i32 0, i32 0
  %_M_value.imagp3 = getelementptr inbounds nuw { double, double }, ptr %_M_value, i32 0, i32 1
  store double %add.r, ptr %_M_value.realp2, align 8
  store double %add.i, ptr %_M_value.imagp3, align 8
  ret ptr %this1
}

; Function Attrs: mustprogress nounwind uwtable
define linkonce_odr void @_ZNSt7complexIdEC2Edd(ptr noundef nonnull align 8 dereferenceable(16) %this, double noundef %__r, double noundef %__i) unnamed_addr #3 comdat align 2 {
entry:
  %this.addr = alloca ptr, align 8
  %__r.addr = alloca double, align 8
  %__i.addr = alloca double, align 8
  store ptr %this, ptr %this.addr, align 8, !tbaa !3
  store double %__r, ptr %__r.addr, align 8, !tbaa !14
  store double %__i, ptr %__i.addr, align 8, !tbaa !14
  %this1 = load ptr, ptr %this.addr, align 8
  %_M_value = getelementptr inbounds nuw %"class.std::complex", ptr %this1, i32 0, i32 0
  %0 = load double, ptr %__r.addr, align 8, !tbaa !14
  %1 = load double, ptr %__i.addr, align 8, !tbaa !14
  %_M_value.realp = getelementptr inbounds nuw { double, double }, ptr %_M_value, i32 0, i32 0
  %_M_value.imagp = getelementptr inbounds nuw { double, double }, ptr %_M_value, i32 0, i32 1
  store double %0, ptr %_M_value.realp, align 8
  store double %1, ptr %_M_value.imagp, align 8
  ret void
}

; Function Attrs: inlinehint mustprogress uwtable
define linkonce_odr { double, double } @_ZStplIdESt7complexIT_ERKS2_S4_(ptr noundef nonnull align 8 dereferenceable(16) %__x, ptr noundef nonnull align 8 dereferenceable(16) %__y) #2 comdat {
entry:
  %retval = alloca %"class.std::complex", align 8
  %__x.addr = alloca ptr, align 8
  %__y.addr = alloca ptr, align 8
  store ptr %__x, ptr %__x.addr, align 8, !tbaa !3
  store ptr %__y, ptr %__y.addr, align 8, !tbaa !3
  %0 = load ptr, ptr %__x.addr, align 8, !tbaa !3
  call void @llvm.memcpy.p0.p0.i64(ptr align 8 %retval, ptr align 8 %0, i64 16, i1 false), !tbaa.struct !58
  %1 = load ptr, ptr %__y.addr, align 8, !tbaa !3
  %call = call noundef nonnull align 8 dereferenceable(16) ptr @_ZNSt7complexIdEpLIdEERS0_RKS_IT_E(ptr noundef nonnull align 8 dereferenceable(16) %retval, ptr noundef nonnull align 8 dereferenceable(16) %1)
  %coerce.dive = getelementptr inbounds nuw %"class.std::complex", ptr %retval, i32 0, i32 0
  %2 = load { double, double }, ptr %coerce.dive, align 8
  ret { double, double } %2
}

; Function Attrs: inlinehint mustprogress uwtable
define linkonce_odr { double, double } @_ZNK8QuantLib29AnalyticHestonHullWhiteEngine9addOnTermEddm(ptr noundef nonnull align 8 dereferenceable(440) %this, double noundef %u, double noundef %0, i64 noundef %j) unnamed_addr #2 comdat align 2 {
entry:
  %retval = alloca %"class.std::complex", align 8
  %this.addr = alloca ptr, align 8
  %u.addr = alloca double, align 8
  %.addr = alloca double, align 8
  %j.addr = alloca i64, align 8
  store ptr %this, ptr %this.addr, align 8, !tbaa !3
  store double %u, ptr %u.addr, align 8, !tbaa !14
  store double %0, ptr %.addr, align 8, !tbaa !14
  store i64 %j, ptr %j.addr, align 8, !tbaa !16
  %this1 = load ptr, ptr %this.addr, align 8
  %m_ = getelementptr inbounds nuw %"class.QuantLib::AnalyticHestonHullWhiteEngine", ptr %this1, i32 0, i32 2
  %1 = load double, ptr %m_, align 8, !tbaa !99
  %fneg = fneg double %1
  %2 = load double, ptr %u.addr, align 8, !tbaa !14
  %mul = fmul double %fneg, %2
  %3 = load double, ptr %u.addr, align 8, !tbaa !14
  %mul2 = fmul double %mul, %3
  %4 = load double, ptr %u.addr, align 8, !tbaa !14
  %m_3 = getelementptr inbounds nuw %"class.QuantLib::AnalyticHestonHullWhiteEngine", ptr %this1, i32 0, i32 2
  %5 = load double, ptr %m_3, align 8, !tbaa !99
  %m_4 = getelementptr inbounds nuw %"class.QuantLib::AnalyticHestonHullWhiteEngine", ptr %this1, i32 0, i32 2
  %6 = load double, ptr %m_4, align 8, !tbaa !99
  %mul5 = fmul double 2.000000e+00, %6
  %7 = load i64, ptr %j.addr, align 8, !tbaa !16
  %sub = sub i64 %7, 1
  %conv = uitofp i64 %sub to double
  %neg = fneg double %mul5
  %8 = call double @llvm.fmuladd.f64(double %neg, double %conv, double %5)
  %mul7 = fmul double %4, %8
  call void @_ZNSt7complexIdEC2Edd(ptr noundef nonnull align 8 dereferenceable(16) %retval, double noundef %mul2, double noundef %mul7)
  %coerce.dive = getelementptr inbounds nuw %"class.std::complex", ptr %retval, i32 0, i32 0
  %9 = load { double, double }, ptr %coerce.dive, align 8
  ret { double, double } %9
}

; Function Attrs: mustprogress uwtable
define { double, double } @_ZNK8QuantLib18AnalyticH1HWEngine9addOnTermEddm(ptr noundef nonnull align 8 dereferenceable(448) %this, double noundef %u, double noundef %t, i64 noundef %j) unnamed_addr #1 align 2 {
entry:
  %retval = alloca %"class.std::complex", align 8
  %this.addr = alloca ptr, align 8
  %u.addr = alloca double, align 8
  %t.addr = alloca double, align 8
  %j.addr = alloca i64, align 8
  %ref.tmp = alloca %"class.std::complex", align 8
  %ref.tmp2 = alloca %"class.std::complex", align 8
  %ref.tmp3 = alloca %"class.QuantLib::AnalyticH1HWEngine::Fj_Helper", align 8
  store ptr %this, ptr %this.addr, align 8, !tbaa !3
  store double %u, ptr %u.addr, align 8, !tbaa !14
  store double %t, ptr %t.addr, align 8, !tbaa !14
  store i64 %j, ptr %j.addr, align 8, !tbaa !16
  %this1 = load ptr, ptr %this.addr, align 8
  call void @llvm.lifetime.start.p0(i64 16, ptr %ref.tmp) #13
  %0 = load double, ptr %u.addr, align 8, !tbaa !14
  %1 = load double, ptr %t.addr, align 8, !tbaa !14
  %2 = load i64, ptr %j.addr, align 8, !tbaa !16
  %call = call { double, double } @_ZNK8QuantLib29AnalyticHestonHullWhiteEngine9addOnTermEddm(ptr noundef nonnull align 8 dereferenceable(440) %this1, double noundef %0, double noundef %1, i64 noundef %2)
  %coerce.dive = getelementptr inbounds nuw %"class.std::complex", ptr %ref.tmp, i32 0, i32 0
  %3 = getelementptr inbounds nuw { double, double }, ptr %coerce.dive, i32 0, i32 0
  %4 = extractvalue { double, double } %call, 0
  store double %4, ptr %3, align 8
  %5 = getelementptr inbounds nuw { double, double }, ptr %coerce.dive, i32 0, i32 1
  %6 = extractvalue { double, double } %call, 1
  store double %6, ptr %5, align 8
  call void @llvm.lifetime.start.p0(i64 16, ptr %ref.tmp2) #13
  call void @llvm.lifetime.start.p0(i64 80, ptr %ref.tmp3) #13
  %model_ = getelementptr inbounds nuw %"class.QuantLib::GenericModelEngine", ptr %this1, i32 0, i32 1
  %hullWhiteModel_ = getelementptr inbounds nuw %"class.QuantLib::AnalyticHestonHullWhiteEngine", ptr %this1, i32 0, i32 1
  %rhoSr_ = getelementptr inbounds nuw %"class.QuantLib::AnalyticH1HWEngine", ptr %this1, i32 0, i32 1
  %7 = load double, ptr %rhoSr_, align 8, !tbaa !60
  %8 = load double, ptr %t.addr, align 8, !tbaa !14
  %9 = load i64, ptr %j.addr, align 8, !tbaa !16
  call void @_ZN8QuantLib18AnalyticH1HWEngine9Fj_HelperC1ERKNS_6HandleINS_11HestonModelEEERKN5boost10shared_ptrINS_9HullWhiteEEEdddm(ptr noundef nonnull align 8 dereferenceable(80) %ref.tmp3, ptr noundef nonnull align 8 dereferenceable(16) %model_, ptr noundef nonnull align 8 dereferenceable(16) %hullWhiteModel_, double noundef %7, double noundef %8, double noundef 0.000000e+00, i64 noundef %9)
  %10 = load double, ptr %u.addr, align 8, !tbaa !14
  %call4 = call { double, double } @_ZNK8QuantLib18AnalyticH1HWEngine9Fj_HelperclEd(ptr noundef nonnull align 8 dereferenceable(80) %ref.tmp3, double noundef %10)
  %coerce.dive5 = getelementptr inbounds nuw %"class.std::complex", ptr %ref.tmp2, i32 0, i32 0
  %11 = getelementptr inbounds nuw { double, double }, ptr %coerce.dive5, i32 0, i32 0
  %12 = extractvalue { double, double } %call4, 0
  store double %12, ptr %11, align 8
  %13 = getelementptr inbounds nuw { double, double }, ptr %coerce.dive5, i32 0, i32 1
  %14 = extractvalue { double, double } %call4, 1
  store double %14, ptr %13, align 8
  %call6 = call { double, double } @_ZStplIdESt7complexIT_ERKS2_S4_(ptr noundef nonnull align 8 dereferenceable(16) %ref.tmp, ptr noundef nonnull align 8 dereferenceable(16) %ref.tmp2)
  %coerce.dive7 = getelementptr inbounds nuw %"class.std::complex", ptr %retval, i32 0, i32 0
  %15 = getelementptr inbounds nuw { double, double }, ptr %coerce.dive7, i32 0, i32 0
  %16 = extractvalue { double, double } %call6, 0
  store double %16, ptr %15, align 8
  %17 = getelementptr inbounds nuw { double, double }, ptr %coerce.dive7, i32 0, i32 1
  %18 = extractvalue { double, double } %call6, 1
  store double %18, ptr %17, align 8
  call void @llvm.lifetime.end.p0(i64 80, ptr %ref.tmp3) #13
  call void @llvm.lifetime.end.p0(i64 16, ptr %ref.tmp2) #13
  call void @llvm.lifetime.end.p0(i64 16, ptr %ref.tmp) #13
  %coerce.dive8 = getelementptr inbounds nuw %"class.std::complex", ptr %retval, i32 0, i32 0
  %19 = load { double, double }, ptr %coerce.dive8, align 8
  ret { double, double } %19
}