; Function Attrs: mustprogress uwtable
define { double, double } @_ZNK8QuantLib18AnalyticH1HWEngine9addOnTermEddm(ptr noundef nonnull align 8 dereferenceable(448) %this, double noundef %u, double noundef %t, i64 noundef %j) unnamed_addr #1 align 2 {
entry:
  %ref.tmp3 = alloca %"class.QuantLib::AnalyticH1HWEngine::Fj_Helper", align 8
  %m_.i = getelementptr inbounds nuw i8, ptr %this, i64 416
  %0 = load double, ptr %m_.i, align 8, !tbaa !116
  %fneg.i = fneg double %0
  %mul.i = fmul double %u, %fneg.i
  %mul2.i = fmul double %u, %mul.i
  %sub.i = add i64 %j, -1
  %conv.i = uitofp i64 %sub.i to double
  %neg.i = fmul double %0, -2.000000e+00
  %1 = tail call double @llvm.fmuladd.f64(double %neg.i, double %conv.i, double %0)
  %mul7.i = fmul double %u, %1
  call void @llvm.lifetime.start.p0(i64 80, ptr nonnull %ref.tmp3) #24
  %model_ = getelementptr inbounds nuw i8, ptr %this, i64 336
  %hullWhiteModel_ = getelementptr inbounds nuw i8, ptr %this, i64 400
  %rhoSr_ = getelementptr inbounds nuw i8, ptr %this, i64 440
  %2 = load double, ptr %rhoSr_, align 8, !tbaa !86
  call void @_ZN8QuantLib18AnalyticH1HWEngine9Fj_HelperC1ERKNS_6HandleINS_11HestonModelEEERKN5boost10shared_ptrINS_9HullWhiteEEEdddm(ptr noundef nonnull align 8 dereferenceable(80) %ref.tmp3, ptr noundef nonnull align 8 dereferenceable(16) %model_, ptr noundef nonnull align 8 dereferenceable(16) %hullWhiteModel_, double noundef %2, double noundef %t, double noundef 0.000000e+00, i64 noundef %j)
  %call4 = call { double, double } @_ZNK8QuantLib18AnalyticH1HWEngine9Fj_HelperclEd(ptr noundef nonnull align 8 dereferenceable(80) %ref.tmp3, double noundef %u)
  %3 = extractvalue { double, double } %call4, 0
  %4 = extractvalue { double, double } %call4, 1
  %add.r.i.i = fadd double %mul2.i, %3
  %add.i.i.i = fadd double %mul7.i, %4
  %.fca.0.insert.i4 = insertvalue { double, double } poison, double %add.r.i.i, 0
  %.fca.1.insert.i5 = insertvalue { double, double } %.fca.0.insert.i4, double %add.i.i.i, 1
  call void @llvm.lifetime.end.p0(i64 80, ptr nonnull %ref.tmp3) #24
  ret { double, double } %.fca.1.insert.i5
}